; Function Attrs: nounwind uwtable
define noundef nonnull ptr @l___private_Lean_Elab_Extra_0__Lean_Elab_Term_Op_BinOpKind_toCtorIdx___boxed(ptr noundef %0) local_unnamed_addr #0 {
  %2 = ptrtoint ptr %0 to i64
  %3 = lshr i64 %2, 1
  %4 = trunc i64 %3 to i8
  %5 = and i64 %2, 1
  %.not = icmp eq i64 %5, 0
  br i1 %.not, label %6, label %lean_dec.exit

6:                                                ; preds = %1
  %7 = load i32, ptr %0, align 4, !tbaa !8
  %8 = icmp sgt i32 %7, 1
  br i1 %8, label %9, label %11, !prof !11

9:                                                ; preds = %6
  %10 = add nsw i32 %7, -1
  store i32 %10, ptr %0, align 4, !tbaa !8
  br label %lean_dec.exit

11:                                               ; preds = %6
  %.not.i = icmp eq i32 %7, 0
  br i1 %.not.i, label %lean_dec.exit, label %12

12:                                               ; preds = %11
  tail call void @lean_dec_ref_cold(ptr noundef nonnull %0) #7
  br label %lean_dec.exit

lean_dec.exit:                                    ; preds = %12, %11, %9, %1
  switch i8 %4, label %15 [
    i8 0, label %l___private_Lean_Elab_Extra_0__Lean_Elab_Term_Op_BinOpKind_toCtorIdx.exit
    i8 1, label %13
    i8 2, label %14
  ]

13:                                               ; preds = %lean_dec.exit
  br label %l___private_Lean_Elab_Extra_0__Lean_Elab_Term_Op_BinOpKind_toCtorIdx.exit

14:                                               ; preds = %lean_dec.exit
  br label %l___private_Lean_Elab_Extra_0__Lean_Elab_Term_Op_BinOpKind_toCtorIdx.exit

15:                                               ; preds = %lean_dec.exit
  br label %l___private_Lean_Elab_Extra_0__Lean_Elab_Term_Op_BinOpKind_toCtorIdx.exit

l___private_Lean_Elab_Extra_0__Lean_Elab_Term_Op_BinOpKind_toCtorIdx.exit: ; preds = %lean_dec.exit, %13, %14, %15
  %.0.i = phi ptr [ inttoptr (i64 7 to ptr), %15 ], [ inttoptr (i64 5 to ptr), %14 ], [ inttoptr (i64 3 to ptr), %13 ], [ inttoptr (i64 1 to ptr), %lean_dec.exit ]
  ret ptr %.0.i
}